; Function Attrs: mustprogress nofree norecurse nosync nounwind memory(readwrite, inaccessiblemem: write) uwtable
define hidden void @_ZN6hermes5Value13removeAllUsesEv(ptr noundef nonnull align 8 dereferenceable(40) %this) local_unnamed_addr #3 align 2 {
entry:
  %Size.i = getelementptr inbounds i8, ptr %this, i64 16
  %0 = load i32, ptr %Size.i, align 8
  %tobool.not3 = icmp eq i32 %0, 0
  br i1 %tobool.not3, label %while.end, label %while.body.lr.ph

while.body.lr.ph:                                 ; preds = %entry
  %Users = getelementptr inbounds i8, ptr %this, i64 8
  br label %while.body

while.body:                                       ; preds = %while.body.lr.ph, %while.body
  %1 = phi i32 [ %0, %while.body.lr.ph ], [ %5, %while.body ]
  %conv.i = zext i32 %1 to i64
  %2 = load ptr, ptr %Users, align 8
  %3 = getelementptr ptr, ptr %2, i64 %conv.i
  %arrayidx.i = getelementptr i8, ptr %3, i64 -8
  %4 = load ptr, ptr %arrayidx.i, align 8
  tail call void @_ZN6hermes11Instruction12eraseOperandEPNS_5ValueE(ptr noundef nonnull align 8 dereferenceable(132) %4, ptr noundef nonnull %this)
  %5 = load i32, ptr %Size.i, align 8
  %tobool.not = icmp eq i32 %5, 0
  br i1 %tobool.not, label %while.end, label %while.body, !llvm.loop !8

while.end:                                        ; preds = %while.body, %entry
  ret void
}